; Function Attrs: nounwind uwtable
define dso_local range(i32 0, 2) i32 @lua_pushthread(ptr noundef %0) local_unnamed_addr #1 {
  %2 = getelementptr inbounds nuw i8, ptr %0, i64 40
  %3 = load ptr, ptr %2, align 8, !tbaa !14
  %4 = ptrtoint ptr %0 to i64
  %5 = or i64 %4, -985162418487296
  store i64 %5, ptr %3, align 8, !tbaa !17
  %6 = load ptr, ptr %2, align 8, !tbaa !14
  %7 = getelementptr inbounds nuw i8, ptr %6, i64 8
  store ptr %7, ptr %2, align 8, !tbaa !14
  %8 = getelementptr inbounds nuw i8, ptr %0, i64 48
  %9 = load i64, ptr %8, align 8, !tbaa !16
  %10 = inttoptr i64 %9 to ptr
  %.not = icmp ult ptr %7, %10
  br i1 %.not, label %12, label %11

11:                                               ; preds = %1
  tail call void @lj_state_growstack1(ptr noundef nonnull %0) #13
  br label %12

12:                                               ; preds = %11, %1
  %13 = getelementptr inbounds nuw i8, ptr %0, i64 16
  %14 = load i64, ptr %13, align 8, !tbaa !21
  %15 = inttoptr i64 %14 to ptr
  %16 = getelementptr inbounds nuw i8, ptr %15, i64 192
  %17 = load i64, ptr %16, align 8, !tbaa !49
  %18 = inttoptr i64 %17 to ptr
  %19 = icmp eq ptr %0, %18
  %20 = zext i1 %19 to i32
  ret i32 %20
}